; Function Attrs: nounwind uwtable
define void @pmix_mca_base_component_close(ptr noundef %0, i32 noundef %1) local_unnamed_addr #0 {
  %3 = getelementptr inbounds nuw i8, ptr %0, i64 168
  %4 = load ptr, ptr %3, align 8, !tbaa !11
  %.not = icmp eq ptr %4, null
  br i1 %.not, label %14, label %5

5:                                                ; preds = %2
  %6 = tail call i32 %4() #7
  %or.cond = icmp ult i32 %1, 64
  br i1 %or.cond, label %7, label %.thread11

7:                                                ; preds = %5
  %8 = zext nneg i32 %1 to i64
  %9 = getelementptr inbounds nuw [0 x %struct.pmix_output_desc_t], ptr @pmix_output_info, i64 0, i64 %8, i32 2
  %10 = load i32, ptr %9, align 4, !tbaa !3
  %11 = icmp sgt i32 %10, 9
  br i1 %11, label %12, label %.thread

12:                                               ; preds = %7
  %13 = getelementptr inbounds nuw i8, ptr %0, i64 84
  tail call void (i32, ptr, ...) @pmix_output(i32 noundef %1, ptr noundef nonnull @.str.1, ptr noundef nonnull %13) #7
  br label %.thread

14:                                               ; preds = %2
  %or.cond.i = icmp ult i32 %1, 64
  br i1 %or.cond.i, label %..thread_crit_edge, label %.thread11

..thread_crit_edge:                               ; preds = %14
  %.pre = zext nneg i32 %1 to i64
  br label %.thread

.thread:                                          ; preds = %..thread_crit_edge, %12, %7
  %.pre-phi = phi i64 [ %.pre, %..thread_crit_edge ], [ %8, %12 ], [ %8, %7 ]
  %15 = getelementptr inbounds nuw [0 x %struct.pmix_output_desc_t], ptr @pmix_output_info, i64 0, i64 %.pre-phi, i32 2
  %16 = load i32, ptr %15, align 4, !tbaa !3
  %17 = icmp sgt i32 %16, 9
  br i1 %17, label %18, label %.thread11

18:                                               ; preds = %.thread
  %19 = getelementptr inbounds nuw i8, ptr %0, i64 84
  tail call void (i32, ptr, ...) @pmix_output(i32 noundef %1, ptr noundef nonnull @.str, ptr noundef nonnull %19) #7
  br label %.thread11

.thread11:                                        ; preds = %5, %18, %.thread, %14
  %20 = getelementptr inbounds nuw i8, ptr %0, i64 12
  %21 = getelementptr inbounds nuw i8, ptr %0, i64 40
  %22 = getelementptr inbounds nuw i8, ptr %0, i64 84
  %23 = tail call i32 @pmix_mca_base_var_group_find(ptr noundef nonnull %20, ptr noundef nonnull %21, ptr noundef nonnull %22) #7
  %24 = icmp sgt i32 %23, -1
  br i1 %24, label %25, label %pmix_mca_base_component_unload.exit

25:                                               ; preds = %.thread11
  %26 = tail call i32 @pmix_mca_base_var_group_deregister(i32 noundef %23) #7
  br label %pmix_mca_base_component_unload.exit

pmix_mca_base_component_unload.exit:              ; preds = %.thread11, %25
  tail call void @pmix_mca_base_component_repository_release(ptr noundef nonnull %0) #7
  ret void
}